target datalayout = "e-m:e-p270:32:32-p271:32:32-p272:64:64-i64:64-i128:128-f80:128-n8:16:32:64-S128"
target triple = "x86_64-pc-linux-gnu"

%struct.crypto_ex_data_st = type { ptr }
%struct.ssl_st = type { i32, i16, i16, ptr, ptr, ptr, ptr, ptr, i32, i32, ptr, ptr, i32, i32, ptr, ptr, ptr, ptr, ptr, ptr, ptr, ptr, i32, i32, [32 x i8], ptr, ptr, ptr, ptr, ptr, ptr, ptr, i64, %struct.crypto_ex_data_st, ptr, i32, i32, i32, i32, i16, ptr, i32, i64, ptr, ptr, ptr, ptr, ptr, ptr, i32, i32, ptr, ptr, i8, i8, i32 }
%struct.ssl_protocol_method_st = type { i8, ptr, ptr, ptr, ptr, ptr, ptr, ptr, ptr, ptr, ptr, ptr, i32, ptr, ptr }
%struct.dtls1_state_st = type { i32, [256 x i8], i64, i16, i16, %struct.dtls1_bitmap_st, i16, i16, i16, [8 x i8], ptr, ptr, i32, %struct.hm_header_st, i32, %struct.timeval, i16 }
%struct.dtls1_bitmap_st = type { i64, i64 }
%struct.hm_header_st = type { i8, i32, i16, i32, i32, i32, i16 }
%struct.timeval = type { i64, i64 }

@.str = private unnamed_addr constant [117 x i8] c"generated/home/dtcxzyw/WorkSpace/Projects/compilers/llvm-opt-benchmark/bench/libquic/libquic/boringssl/ssl/ssl_lib.c\00", align 1

; Function Attrs: nounwind uwtable
define hidden i32 @SSL_get_options(ptr noundef %0) #0 {
  %2 = alloca ptr, align 8
  store ptr %0, ptr %2, align 8, !tbaa !80
  %3 = load ptr, ptr %2, align 8, !tbaa !80
  %4 = getelementptr inbounds nuw %struct.ssl_st, ptr %3, i32 0, i32 35
  %5 = load i32, ptr %4, align 8, !tbaa !92
  ret i32 %5
}

; Function Attrs: nounwind uwtable
define hidden void @SSL_set_connect_state(ptr noundef %0) #0 {
  %2 = alloca ptr, align 8
  store ptr %0, ptr %2, align 8, !tbaa !80
  %3 = load ptr, ptr %2, align 8, !tbaa !80
  %4 = getelementptr inbounds nuw %struct.ssl_st, ptr %3, i32 0, i32 54
  %5 = load i8, ptr %4, align 1
  %6 = and i8 %5, -3
  %7 = or i8 %6, 0
  store i8 %7, ptr %4, align 1
  %8 = load ptr, ptr %2, align 8, !tbaa !80
  %9 = getelementptr inbounds nuw %struct.ssl_st, ptr %8, i32 0, i32 8
  store i32 0, ptr %9, align 8, !tbaa !138
  %10 = load ptr, ptr %2, align 8, !tbaa !80
  %11 = getelementptr inbounds nuw %struct.ssl_st, ptr %10, i32 0, i32 9
  store i32 4096, ptr %11, align 4, !tbaa !139
  %12 = load ptr, ptr %2, align 8, !tbaa !80
  %13 = getelementptr inbounds nuw %struct.ssl_st, ptr %12, i32 0, i32 3
  %14 = load ptr, ptr %13, align 8, !tbaa !117
  %15 = getelementptr inbounds nuw %struct.ssl_protocol_method_st, ptr %14, i32 0, i32 4
  %16 = load ptr, ptr %15, align 8, !tbaa !140
  %17 = load ptr, ptr %2, align 8, !tbaa !80
  %18 = getelementptr inbounds nuw %struct.ssl_st, ptr %17, i32 0, i32 7
  store ptr %16, ptr %18, align 8, !tbaa !141
  ret void
}

; Function Attrs: nounwind uwtable
define hidden void @SSL_set_accept_state(ptr noundef %0) #0 {
  %2 = alloca ptr, align 8
  store ptr %0, ptr %2, align 8, !tbaa !80
  %3 = load ptr, ptr %2, align 8, !tbaa !80
  %4 = getelementptr inbounds nuw %struct.ssl_st, ptr %3, i32 0, i32 54
  %5 = load i8, ptr %4, align 1
  %6 = and i8 %5, -3
  %7 = or i8 %6, 2
  store i8 %7, ptr %4, align 1
  %8 = load ptr, ptr %2, align 8, !tbaa !80
  %9 = getelementptr inbounds nuw %struct.ssl_st, ptr %8, i32 0, i32 8
  store i32 0, ptr %9, align 8, !tbaa !138
  %10 = load ptr, ptr %2, align 8, !tbaa !80
  %11 = getelementptr inbounds nuw %struct.ssl_st, ptr %10, i32 0, i32 9
  store i32 8192, ptr %11, align 4, !tbaa !139
  %12 = load ptr, ptr %2, align 8, !tbaa !80
  %13 = getelementptr inbounds nuw %struct.ssl_st, ptr %12, i32 0, i32 3
  %14 = load ptr, ptr %13, align 8, !tbaa !117
  %15 = getelementptr inbounds nuw %struct.ssl_protocol_method_st, ptr %14, i32 0, i32 3
  %16 = load ptr, ptr %15, align 8, !tbaa !142
  %17 = load ptr, ptr %2, align 8, !tbaa !80
  %18 = getelementptr inbounds nuw %struct.ssl_st, ptr %17, i32 0, i32 7
  store ptr %16, ptr %18, align 8, !tbaa !141
  ret void
}

; Function Attrs: nounwind uwtable
define hidden i32 @SSL_clear(ptr noundef %0) #0 {
  %2 = alloca i32, align 4
  %3 = alloca ptr, align 8
  %4 = alloca i32, align 4
  %5 = alloca i32, align 4
  store ptr %0, ptr %3, align 8, !tbaa !80
  %6 = load ptr, ptr %3, align 8, !tbaa !80
  %7 = getelementptr inbounds nuw %struct.ssl_st, ptr %6, i32 0, i32 3
  %8 = load ptr, ptr %7, align 8, !tbaa !117
  %9 = icmp eq ptr %8, null
  br i1 %9, label %10, label %11

10:                                               ; preds = %1
  call void @ERR_put_error(i32 noundef 16, i32 noundef 0, i32 noundef 179, ptr noundef @.str, i32 noundef 2656)
  store i32 0, ptr %2, align 4
  br label %108

11:                                               ; preds = %1
  %12 = load ptr, ptr %3, align 8, !tbaa !80
  %13 = call i32 @ssl_clear_bad_session(ptr noundef %12)
  %14 = icmp ne i32 %13, 0
  br i1 %14, label %15, label %21

15:                                               ; preds = %11
  %16 = load ptr, ptr %3, align 8, !tbaa !80
  %17 = getelementptr inbounds nuw %struct.ssl_st, ptr %16, i32 0, i32 25
  %18 = load ptr, ptr %17, align 8, !tbaa !133
  call void @SSL_SESSION_free(ptr noundef %18)
  %19 = load ptr, ptr %3, align 8, !tbaa !80
  %20 = getelementptr inbounds nuw %struct.ssl_st, ptr %19, i32 0, i32 25
  store ptr null, ptr %20, align 8, !tbaa !133
  br label %21

21:                                               ; preds = %15, %11
  %22 = load ptr, ptr %3, align 8, !tbaa !80
  %23 = getelementptr inbounds nuw %struct.ssl_st, ptr %22, i32 0, i32 54
  %24 = load i8, ptr %23, align 1
  %25 = and i8 %24, -2
  %26 = or i8 %25, 0
  store i8 %26, ptr %23, align 1
  %27 = load ptr, ptr %3, align 8, !tbaa !80
  %28 = getelementptr inbounds nuw %struct.ssl_st, ptr %27, i32 0, i32 8
  store i32 0, ptr %28, align 8, !tbaa !138
  %29 = load ptr, ptr %3, align 8, !tbaa !80
  %30 = getelementptr inbounds nuw %struct.ssl_st, ptr %29, i32 0, i32 7
  %31 = load ptr, ptr %30, align 8, !tbaa !141
  %32 = icmp ne ptr %31, null
  br i1 %32, label %33, label %46

33:                                               ; preds = %21
  %34 = load ptr, ptr %3, align 8, !tbaa !80
  %35 = getelementptr inbounds nuw %struct.ssl_st, ptr %34, i32 0, i32 54
  %36 = load i8, ptr %35, align 1
  %37 = lshr i8 %36, 1
  %38 = and i8 %37, 1
  %39 = zext i8 %38 to i32
  %40 = icmp ne i32 %39, 0
  br i1 %40, label %41, label %43

41:                                               ; preds = %33
  %42 = load ptr, ptr %3, align 8, !tbaa !80
  call void @SSL_set_accept_state(ptr noundef %42)
  br label %45

43:                                               ; preds = %33
  %44 = load ptr, ptr %3, align 8, !tbaa !80
  call void @SSL_set_connect_state(ptr noundef %44)
  br label %45

45:                                               ; preds = %43, %41
  br label %47

46:                                               ; preds = %21
  br label %47

47:                                               ; preds = %46, %45
  %48 = load ptr, ptr %3, align 8, !tbaa !80
  %49 = getelementptr inbounds nuw %struct.ssl_st, ptr %48, i32 0, i32 22
  store i32 1, ptr %49, align 8, !tbaa !120
  %50 = load ptr, ptr %3, align 8, !tbaa !80
  %51 = getelementptr inbounds nuw %struct.ssl_st, ptr %50, i32 0, i32 10
  %52 = load ptr, ptr %51, align 8, !tbaa !130
  call void @BUF_MEM_free(ptr noundef %52)
  %53 = load ptr, ptr %3, align 8, !tbaa !80
  %54 = getelementptr inbounds nuw %struct.ssl_st, ptr %53, i32 0, i32 10
  store ptr null, ptr %54, align 8, !tbaa !130
  call void @llvm.lifetime.start.p0(i64 4, ptr %4) #8
  store i32 0, ptr %4, align 4, !tbaa !61
  %55 = load ptr, ptr %3, align 8, !tbaa !80
  %56 = getelementptr inbounds nuw %struct.ssl_st, ptr %55, i32 0, i32 15
  %57 = load ptr, ptr %56, align 8, !tbaa !193
  %58 = icmp ne ptr %57, null
  br i1 %58, label %59, label %65

59:                                               ; preds = %47
  %60 = load ptr, ptr %3, align 8, !tbaa !80
  %61 = getelementptr inbounds nuw %struct.ssl_st, ptr %60, i32 0, i32 15
  %62 = load ptr, ptr %61, align 8, !tbaa !193
  %63 = getelementptr inbounds nuw %struct.dtls1_state_st, ptr %62, i32 0, i32 12
  %64 = load i32, ptr %63, align 8, !tbaa !194
  store i32 %64, ptr %4, align 4, !tbaa !61
  br label %65

65:                                               ; preds = %59, %47
  %66 = load ptr, ptr %3, align 8, !tbaa !80
  %67 = getelementptr inbounds nuw %struct.ssl_st, ptr %66, i32 0, i32 3
  %68 = load ptr, ptr %67, align 8, !tbaa !117
  %69 = getelementptr inbounds nuw %struct.ssl_protocol_method_st, ptr %68, i32 0, i32 2
  %70 = load ptr, ptr %69, align 8, !tbaa !137
  %71 = load ptr, ptr %3, align 8, !tbaa !80
  call void %70(ptr noundef %71)
  %72 = load ptr, ptr %3, align 8, !tbaa !80
  %73 = getelementptr inbounds nuw %struct.ssl_st, ptr %72, i32 0, i32 3
  %74 = load ptr, ptr %73, align 8, !tbaa !117
  %75 = getelementptr inbounds nuw %struct.ssl_protocol_method_st, ptr %74, i32 0, i32 1
  %76 = load ptr, ptr %75, align 8, !tbaa !118
  %77 = load ptr, ptr %3, align 8, !tbaa !80
  %78 = call i32 %76(ptr noundef %77)
  %79 = icmp ne i32 %78, 0
  br i1 %79, label %81, label %80

80:                                               ; preds = %65
  store i32 0, ptr %2, align 4
  store i32 1, ptr %5, align 4
  br label %107

81:                                               ; preds = %65
  %82 = load ptr, ptr %3, align 8, !tbaa !80
  %83 = getelementptr inbounds nuw %struct.ssl_st, ptr %82, i32 0, i32 3
  %84 = load ptr, ptr %83, align 8, !tbaa !117
  %85 = getelementptr inbounds nuw %struct.ssl_protocol_method_st, ptr %84, i32 0, i32 0
  %86 = load i8, ptr %85, align 8, !tbaa !192
  %87 = sext i8 %86 to i32
  %88 = icmp ne i32 %87, 0
  br i1 %88, label %89, label %101

89:                                               ; preds = %81
  %90 = load ptr, ptr %3, align 8, !tbaa !80
  %91 = call i32 @SSL_get_options(ptr noundef %90)
  %92 = zext i32 %91 to i64
  %93 = and i64 %92, 4096
  %94 = icmp ne i64 %93, 0
  br i1 %94, label %95, label %101

95:                                               ; preds = %89
  %96 = load i32, ptr %4, align 4, !tbaa !61
  %97 = load ptr, ptr %3, align 8, !tbaa !80
  %98 = getelementptr inbounds nuw %struct.ssl_st, ptr %97, i32 0, i32 15
  %99 = load ptr, ptr %98, align 8, !tbaa !193
  %100 = getelementptr inbounds nuw %struct.dtls1_state_st, ptr %99, i32 0, i32 12
  store i32 %96, ptr %100, align 8, !tbaa !194
  br label %101

101:                                              ; preds = %95, %89, %81
  %102 = load ptr, ptr %3, align 8, !tbaa !80
  %103 = getelementptr inbounds nuw %struct.ssl_st, ptr %102, i32 0, i32 0
  %104 = load i32, ptr %103, align 8, !tbaa !178
  %105 = load ptr, ptr %3, align 8, !tbaa !80
  %106 = getelementptr inbounds nuw %struct.ssl_st, ptr %105, i32 0, i32 38
  store i32 %104, ptr %106, align 4, !tbaa !280
  store i32 1, ptr %2, align 4
  store i32 1, ptr %5, align 4
  br label %107

107:                                              ; preds = %101, %80
  call void @llvm.lifetime.end.p0(i64 4, ptr %4) #8
  br label %108

108:                                              ; preds = %107, %10
  %109 = load i32, ptr %2, align 4
  ret i32 %109
}