; Function Attrs: nounwind uwtable
define hidden range(i32 0, 2) i32 @SSL_clear(ptr noundef %0) local_unnamed_addr #0 {
  %2 = getelementptr inbounds nuw i8, ptr %0, i64 8
  %3 = load ptr, ptr %2, align 8, !tbaa !106
  %4 = icmp eq ptr %3, null
  br i1 %4, label %5, label %6

5:                                                ; preds = %1
  tail call void @ERR_put_error(i32 noundef 16, i32 noundef 0, i32 noundef 179, ptr noundef nonnull @.str, i32 noundef 2656) #21
  br label %56

6:                                                ; preds = %1
  %7 = tail call i32 @ssl_clear_bad_session(ptr noundef nonnull %0) #21
  %.not = icmp eq i32 %7, 0
  br i1 %.not, label %11, label %8

8:                                                ; preds = %6
  %9 = getelementptr inbounds nuw i8, ptr %0, i64 184
  %10 = load ptr, ptr %9, align 8, !tbaa !122
  tail call void @SSL_SESSION_free(ptr noundef %10) #21
  store ptr null, ptr %9, align 8, !tbaa !122
  br label %11

11:                                               ; preds = %8, %6
  %12 = getelementptr inbounds nuw i8, ptr %0, i64 385
  %13 = load i8, ptr %12, align 1
  %14 = and i8 %13, -2
  store i8 %14, ptr %12, align 1
  %15 = getelementptr inbounds nuw i8, ptr %0, i64 48
  store i32 0, ptr %15, align 8, !tbaa !127
  %16 = getelementptr inbounds nuw i8, ptr %0, i64 40
  %17 = load ptr, ptr %16, align 8, !tbaa !130
  %.not27 = icmp eq ptr %17, null
  br i1 %.not27, label %26, label %18

18:                                               ; preds = %11
  %19 = and i8 %13, 2
  %.not28 = icmp eq i8 %19, 0
  br i1 %.not28, label %20, label %.sink.split

20:                                               ; preds = %18
  %21 = and i8 %13, -4
  store i8 %21, ptr %12, align 1
  br label %.sink.split

.sink.split:                                      ; preds = %18, %20
  %.sink = phi i32 [ 4096, %20 ], [ 8192, %18 ]
  %.sink34 = phi i64 [ 32, %20 ], [ 24, %18 ]
  %22 = getelementptr inbounds nuw i8, ptr %0, i64 52
  store i32 %.sink, ptr %22, align 4, !tbaa !128
  %23 = load ptr, ptr %2, align 8, !tbaa !106
  %24 = getelementptr inbounds nuw i8, ptr %23, i64 %.sink34
  %25 = load ptr, ptr %24, align 8, !tbaa !248
  store ptr %25, ptr %16, align 8, !tbaa !130
  br label %26

26:                                               ; preds = %.sink.split, %11
  %27 = getelementptr inbounds nuw i8, ptr %0, i64 144
  store i32 1, ptr %27, align 8, !tbaa !109
  %28 = getelementptr inbounds nuw i8, ptr %0, i64 56
  %29 = load ptr, ptr %28, align 8, !tbaa !119
  tail call void @BUF_MEM_free(ptr noundef %29) #21
  store ptr null, ptr %28, align 8, !tbaa !119
  %30 = getelementptr inbounds nuw i8, ptr %0, i64 88
  %31 = load ptr, ptr %30, align 8, !tbaa !175
  %.not29 = icmp eq ptr %31, null
  br i1 %.not29, label %35, label %32

32:                                               ; preds = %26
  %33 = getelementptr inbounds nuw i8, ptr %31, i64 328
  %34 = load i32, ptr %33, align 8, !tbaa !176
  br label %35

35:                                               ; preds = %32, %26
  %.0 = phi i32 [ %34, %32 ], [ 0, %26 ]
  %36 = load ptr, ptr %2, align 8, !tbaa !106
  %37 = getelementptr inbounds nuw i8, ptr %36, i64 16
  %38 = load ptr, ptr %37, align 8, !tbaa !126
  tail call void %38(ptr noundef nonnull %0) #21
  %39 = load ptr, ptr %2, align 8, !tbaa !106
  %40 = getelementptr inbounds nuw i8, ptr %39, i64 8
  %41 = load ptr, ptr %40, align 8, !tbaa !107
  %42 = tail call i32 %41(ptr noundef nonnull %0) #21
  %.not30 = icmp eq i32 %42, 0
  br i1 %.not30, label %56, label %43

43:                                               ; preds = %35
  %44 = load ptr, ptr %2, align 8, !tbaa !106
  %45 = load i8, ptr %44, align 8, !tbaa !174
  %.not31 = icmp eq i8 %45, 0
  br i1 %.not31, label %53, label %46

46:                                               ; preds = %43
  %47 = getelementptr inbounds nuw i8, ptr %0, i64 264
  %48 = load i32, ptr %47, align 8, !tbaa !81
  %49 = and i32 %48, 4096
  %.not32 = icmp eq i32 %49, 0
  br i1 %.not32, label %53, label %50

50:                                               ; preds = %46
  %51 = load ptr, ptr %30, align 8, !tbaa !175
  %52 = getelementptr inbounds nuw i8, ptr %51, i64 328
  store i32 %.0, ptr %52, align 8, !tbaa !176
  br label %53

53:                                               ; preds = %50, %46, %43
  %54 = load i32, ptr %0, align 8, !tbaa !159
  %55 = getelementptr inbounds nuw i8, ptr %0, i64 276
  store i32 %54, ptr %55, align 4, !tbaa !249
  br label %56

56:                                               ; preds = %53, %35, %5
  %.025 = phi i32 [ 0, %5 ], [ 1, %53 ], [ 0, %35 ]
  ret i32 %.025
}